target datalayout = "e-m:e-p270:32:32-p271:32:32-p272:64:64-i64:64-i128:128-f80:128-n8:16:32:64-S128"
target triple = "x86_64-pc-linux-gnu"

%"struct.Luau::CodeGen::A64::RegisterA64" = type { i8 }
%"class.Luau::CodeGen::A64::AssemblyBuilderA64" = type { %"class.std::vector", %"class.std::vector.0", %"class.std::__cxx11::basic_string", i8, i32, i32, %"class.std::vector.8", %"class.std::vector.0", i8, i8, i64, ptr, ptr }
%"class.std::vector" = type { %"struct.std::_Vector_base" }
%"struct.std::_Vector_base" = type { %"struct.std::_Vector_base<unsigned char, std::allocator<unsigned char>>::_Vector_impl" }
%"struct.std::_Vector_base<unsigned char, std::allocator<unsigned char>>::_Vector_impl" = type { %"struct.std::_Vector_base<unsigned char, std::allocator<unsigned char>>::_Vector_impl_data" }
%"struct.std::_Vector_base<unsigned char, std::allocator<unsigned char>>::_Vector_impl_data" = type { ptr, ptr, ptr }
%"class.std::__cxx11::basic_string" = type { %"struct.std::__cxx11::basic_string<char>::_Alloc_hider", i64, %union.anon }
%"struct.std::__cxx11::basic_string<char>::_Alloc_hider" = type { ptr }
%union.anon = type { i64, [8 x i8] }
%"class.std::vector.8" = type { %"struct.std::_Vector_base.9" }
%"struct.std::_Vector_base.9" = type { %"struct.std::_Vector_base<Luau::CodeGen::A64::AssemblyBuilderA64::Patch, std::allocator<Luau::CodeGen::A64::AssemblyBuilderA64::Patch>>::_Vector_impl" }
%"struct.std::_Vector_base<Luau::CodeGen::A64::AssemblyBuilderA64::Patch, std::allocator<Luau::CodeGen::A64::AssemblyBuilderA64::Patch>>::_Vector_impl" = type { %"struct.std::_Vector_base<Luau::CodeGen::A64::AssemblyBuilderA64::Patch, std::allocator<Luau::CodeGen::A64::AssemblyBuilderA64::Patch>>::_Vector_impl_data" }
%"struct.std::_Vector_base<Luau::CodeGen::A64::AssemblyBuilderA64::Patch, std::allocator<Luau::CodeGen::A64::AssemblyBuilderA64::Patch>>::_Vector_impl_data" = type { ptr, ptr, ptr }
%"class.std::vector.0" = type { %"struct.std::_Vector_base.1" }
%"struct.std::_Vector_base.1" = type { %"struct.std::_Vector_base<unsigned int, std::allocator<unsigned int>>::_Vector_impl" }
%"struct.std::_Vector_base<unsigned int, std::allocator<unsigned int>>::_Vector_impl" = type { %"struct.std::_Vector_base<unsigned int, std::allocator<unsigned int>>::_Vector_impl_data" }
%"struct.std::_Vector_base<unsigned int, std::allocator<unsigned int>>::_Vector_impl_data" = type { ptr, ptr, ptr }

@.str.20 = private unnamed_addr constant [4 x i8] c"clz\00", align 1

; Function Attrs: mustprogress uwtable
define dso_local void @_ZN4Luau7CodeGen3A6418AssemblyBuilderA646commitEv(ptr noundef nonnull align 8 dereferenceable(176) %0) #0 align 2 {
  %2 = alloca ptr, align 8
  store ptr %0, ptr %2, align 8, !tbaa !4
  %3 = load ptr, ptr %2, align 8
  %4 = getelementptr inbounds nuw %"class.Luau::CodeGen::A64::AssemblyBuilderA64", ptr %3, i32 0, i32 12
  %5 = load ptr, ptr %4, align 8, !tbaa !41
  %6 = getelementptr inbounds nuw %"class.Luau::CodeGen::A64::AssemblyBuilderA64", ptr %3, i32 0, i32 11
  %7 = load ptr, ptr %6, align 8, !tbaa !40
  %8 = icmp eq ptr %5, %7
  br i1 %8, label %9, label %10

9:                                                ; preds = %1
  call void @_ZN4Luau7CodeGen3A6418AssemblyBuilderA646extendEv(ptr noundef nonnull align 8 dereferenceable(176) %3)
  br label %10

10:                                               ; preds = %9, %1
  ret void
}

; Function Attrs: mustprogress nounwind uwtable
define dso_local void @_ZN4Luau7CodeGen3A6418AssemblyBuilderA645placeEj(ptr noundef nonnull align 8 dereferenceable(176) %0, i32 noundef %1) #1 align 2 {
  %3 = alloca ptr, align 8
  %4 = alloca i32, align 4
  store ptr %0, ptr %3, align 8, !tbaa !4
  store i32 %1, ptr %4, align 4, !tbaa !11
  %5 = load ptr, ptr %3, align 8
  %6 = load i32, ptr %4, align 4, !tbaa !11
  %7 = getelementptr inbounds nuw %"class.Luau::CodeGen::A64::AssemblyBuilderA64", ptr %5, i32 0, i32 11
  %8 = load ptr, ptr %7, align 8, !tbaa !40
  %9 = getelementptr inbounds nuw i32, ptr %8, i32 1
  store ptr %9, ptr %7, align 8, !tbaa !40
  store i32 %6, ptr %8, align 4, !tbaa !11
  ret void
}

; Function Attrs: mustprogress uwtable
define dso_local void @_ZN4Luau7CodeGen3A6418AssemblyBuilderA647placeR1EPKcNS1_11RegisterA64ES5_j(ptr noundef nonnull align 8 dereferenceable(176) %0, ptr noundef %1, i8 %2, i8 %3, i32 noundef %4) #0 align 2 {
  %6 = alloca %"struct.Luau::CodeGen::A64::RegisterA64", align 1
  %7 = alloca %"struct.Luau::CodeGen::A64::RegisterA64", align 1
  %8 = alloca ptr, align 8
  %9 = alloca ptr, align 8
  %10 = alloca i32, align 4
  %11 = alloca %"struct.Luau::CodeGen::A64::RegisterA64", align 1
  %12 = alloca %"struct.Luau::CodeGen::A64::RegisterA64", align 1
  %13 = alloca i32, align 4
  %14 = getelementptr inbounds nuw %"struct.Luau::CodeGen::A64::RegisterA64", ptr %6, i32 0, i32 0
  store i8 %2, ptr %14, align 1
  %15 = getelementptr inbounds nuw %"struct.Luau::CodeGen::A64::RegisterA64", ptr %7, i32 0, i32 0
  store i8 %3, ptr %15, align 1
  store ptr %0, ptr %8, align 8, !tbaa !4
  store ptr %1, ptr %9, align 8, !tbaa !61
  store i32 %4, ptr %10, align 4, !tbaa !11
  %16 = load ptr, ptr %8, align 8
  %17 = getelementptr inbounds nuw %"class.Luau::CodeGen::A64::AssemblyBuilderA64", ptr %16, i32 0, i32 3
  %18 = load i8, ptr %17, align 8, !tbaa !15, !range !13, !noundef !14
  %19 = trunc i8 %18 to i1
  br i1 %19, label %20, label %26

20:                                               ; preds = %5
  %21 = load ptr, ptr %9, align 8, !tbaa !61
  call void @llvm.memcpy.p0.p0.i64(ptr align 1 %11, ptr align 1 %6, i64 1, i1 false), !tbaa.struct !57
  call void @llvm.memcpy.p0.p0.i64(ptr align 1 %12, ptr align 1 %7, i64 1, i1 false), !tbaa.struct !57
  %22 = getelementptr inbounds nuw %"struct.Luau::CodeGen::A64::RegisterA64", ptr %11, i32 0, i32 0
  %23 = load i8, ptr %22, align 1
  %24 = getelementptr inbounds nuw %"struct.Luau::CodeGen::A64::RegisterA64", ptr %12, i32 0, i32 0
  %25 = load i8, ptr %24, align 1
  call void @_ZN4Luau7CodeGen3A6418AssemblyBuilderA643logEPKcNS1_11RegisterA64ES5_(ptr noundef nonnull align 8 dereferenceable(176) %16, ptr noundef %21, i8 %23, i8 %25)
  br label %26

26:                                               ; preds = %20, %5
  call void @llvm.lifetime.start.p0(i64 4, ptr %13) #18
  %27 = load i8, ptr %6, align 1
  %28 = and i8 %27, 7
  %29 = icmp eq i8 %28, 2
  br i1 %29, label %34, label %30

30:                                               ; preds = %26
  %31 = load i8, ptr %7, align 1
  %32 = and i8 %31, 7
  %33 = icmp eq i8 %32, 2
  br label %34

34:                                               ; preds = %30, %26
  %35 = phi i1 [ true, %26 ], [ %33, %30 ]
  %36 = select i1 %35, i32 -2147483648, i32 0
  store i32 %36, ptr %13, align 4, !tbaa !11
  %37 = load i8, ptr %6, align 1
  %38 = lshr i8 %37, 3
  %39 = zext i8 %38 to i32
  %40 = load i8, ptr %7, align 1
  %41 = lshr i8 %40, 3
  %42 = zext i8 %41 to i32
  %43 = shl i32 %42, 5
  %44 = or i32 %39, %43
  %45 = load i32, ptr %10, align 4, !tbaa !11
  %46 = shl i32 %45, 10
  %47 = or i32 %44, %46
  %48 = load i32, ptr %13, align 4, !tbaa !11
  %49 = or i32 %47, %48
  call void @_ZN4Luau7CodeGen3A6418AssemblyBuilderA645placeEj(ptr noundef nonnull align 8 dereferenceable(176) %16, i32 noundef %49)
  call void @_ZN4Luau7CodeGen3A6418AssemblyBuilderA646commitEv(ptr noundef nonnull align 8 dereferenceable(176) %16)
  call void @llvm.lifetime.end.p0(i64 4, ptr %13) #18
  ret void
}

; Function Attrs: mustprogress uwtable
define dso_local void @_ZN4Luau7CodeGen3A6418AssemblyBuilderA643clzENS1_11RegisterA64ES3_(ptr noundef nonnull align 8 dereferenceable(176) %0, i8 %1, i8 %2) #0 align 2 {
  %4 = alloca %"struct.Luau::CodeGen::A64::RegisterA64", align 1
  %5 = alloca %"struct.Luau::CodeGen::A64::RegisterA64", align 1
  %6 = alloca ptr, align 8
  %7 = alloca %"struct.Luau::CodeGen::A64::RegisterA64", align 1
  %8 = alloca %"struct.Luau::CodeGen::A64::RegisterA64", align 1
  %9 = getelementptr inbounds nuw %"struct.Luau::CodeGen::A64::RegisterA64", ptr %4, i32 0, i32 0
  store i8 %1, ptr %9, align 1
  %10 = getelementptr inbounds nuw %"struct.Luau::CodeGen::A64::RegisterA64", ptr %5, i32 0, i32 0
  store i8 %2, ptr %10, align 1
  store ptr %0, ptr %6, align 8, !tbaa !4
  %11 = load ptr, ptr %6, align 8
  call void @llvm.memcpy.p0.p0.i64(ptr align 1 %7, ptr align 1 %4, i64 1, i1 false), !tbaa.struct !57
  call void @llvm.memcpy.p0.p0.i64(ptr align 1 %8, ptr align 1 %5, i64 1, i1 false), !tbaa.struct !57
  %12 = getelementptr inbounds nuw %"struct.Luau::CodeGen::A64::RegisterA64", ptr %7, i32 0, i32 0
  %13 = load i8, ptr %12, align 1
  %14 = getelementptr inbounds nuw %"struct.Luau::CodeGen::A64::RegisterA64", ptr %8, i32 0, i32 0
  %15 = load i8, ptr %14, align 1
  call void @_ZN4Luau7CodeGen3A6418AssemblyBuilderA647placeR1EPKcNS1_11RegisterA64ES5_j(ptr noundef nonnull align 8 dereferenceable(176) %11, ptr noundef @.str.20, i8 %13, i8 %15, i32 noundef 1486852)
  ret void
}